target datalayout = "e-m:e-p270:32:32-p271:32:32-p272:64:64-i64:64-i128:128-f80:128-n8:16:32:64-S128"
target triple = "x86_64-pc-linux-gnu"

%struct.FunctionCallInfoBaseData = type { ptr, ptr, ptr, i32, i8, i16, [0 x %struct.NullableDatum] }
%struct.NullableDatum = type { i64, i8 }
%struct.LargeObjectDesc = type { i32, ptr, i32, i64, i32 }

@fscxt = internal global ptr null, align 8
@TopTransactionResourceOwner = external global ptr, align 8
@cookies = internal global ptr null, align 8
@cookies_size = internal global i32 0, align 4
@.str.2 = private unnamed_addr constant [13 x i8] c"be-fsstubs.c\00", align 1
@.str.9 = private unnamed_addr constant [12 x i8] c"lo_unlink()\00", align 1
@.str.10 = private unnamed_addr constant [31 x i8] c"large object %u does not exist\00", align 1
@__func__.be_lo_unlink = private unnamed_addr constant [13 x i8] c"be_lo_unlink\00", align 1
@lo_compat_privileges = external global i8, align 1
@.str.11 = private unnamed_addr constant [33 x i8] c"must be owner of large object %u\00", align 1

; Function Attrs: inlinehint nounwind uwtable
define internal i64 @Int32GetDatum(i32 noundef %0) #2 {
  %2 = alloca i32, align 4
  store i32 %0, ptr %2, align 4
  %3 = load i32, ptr %2, align 4
  %4 = sext i32 %3 to i64
  ret i64 %4
}

; Function Attrs: nounwind uwtable
define internal void @closeLOfd(i32 noundef %0) #0 {
  %2 = alloca i32, align 4
  %3 = alloca ptr, align 8
  store i32 %0, ptr %2, align 4
  call void @llvm.lifetime.start.p0(i64 8, ptr %3) #8
  %4 = load ptr, ptr @cookies, align 8
  %5 = load i32, ptr %2, align 4
  %6 = sext i32 %5 to i64
  %7 = getelementptr inbounds ptr, ptr %4, i64 %6
  %8 = load ptr, ptr %7, align 8
  store ptr %8, ptr %3, align 8
  %9 = load ptr, ptr @cookies, align 8
  %10 = load i32, ptr %2, align 4
  %11 = sext i32 %10 to i64
  %12 = getelementptr inbounds ptr, ptr %9, i64 %11
  store ptr null, ptr %12, align 8
  %13 = load ptr, ptr %3, align 8
  %14 = getelementptr inbounds nuw %struct.LargeObjectDesc, ptr %13, i32 0, i32 1
  %15 = load ptr, ptr %14, align 8
  %16 = icmp ne ptr %15, null
  br i1 %16, label %17, label %22

17:                                               ; preds = %1
  %18 = load ptr, ptr %3, align 8
  %19 = getelementptr inbounds nuw %struct.LargeObjectDesc, ptr %18, i32 0, i32 1
  %20 = load ptr, ptr %19, align 8
  %21 = load ptr, ptr @TopTransactionResourceOwner, align 8
  call void @UnregisterSnapshotFromOwner(ptr noundef %20, ptr noundef %21)
  br label %22

22:                                               ; preds = %17, %1
  %23 = load ptr, ptr %3, align 8
  call void @inv_close(ptr noundef %23)
  call void @llvm.lifetime.end.p0(i64 8, ptr %3) #8
  ret void
}

; Function Attrs: inlinehint nounwind uwtable
define internal i32 @DatumGetObjectId(i64 noundef %0) #2 {
  %2 = alloca i64, align 8
  store i64 %0, ptr %2, align 8
  %3 = load i64, ptr %2, align 8
  %4 = trunc i64 %3 to i32
  ret i32 %4
}

; Function Attrs: nounwind uwtable
define dso_local i64 @be_lo_unlink(ptr noundef %0) #0 {
  %2 = alloca ptr, align 8
  %3 = alloca i32, align 4
  %4 = alloca i32, align 4
  store ptr %0, ptr %2, align 8
  call void @llvm.lifetime.start.p0(i64 4, ptr %3) #8
  %5 = load ptr, ptr %2, align 8
  %6 = getelementptr inbounds nuw %struct.FunctionCallInfoBaseData, ptr %5, i32 0, i32 6
  %7 = getelementptr inbounds [0 x %struct.NullableDatum], ptr %6, i64 0, i64 0
  %8 = getelementptr inbounds nuw %struct.NullableDatum, ptr %7, i32 0, i32 0
  %9 = load i64, ptr %8, align 8
  %10 = call i32 @DatumGetObjectId(i64 noundef %9)
  store i32 %10, ptr %3, align 4
  call void @PreventCommandIfReadOnly(ptr noundef @.str.9)
  %11 = load i32, ptr %3, align 4
  %12 = call zeroext i1 @LargeObjectExists(i32 noundef %11)
  br i1 %12, label %26, label %13

13:                                               ; preds = %1
  br label %14

14:                                               ; preds = %13
  br i1 true, label %15, label %17

15:                                               ; preds = %14
  %16 = call zeroext i1 @errstart_cold(i32 noundef 21, ptr noundef null) #9
  br i1 %16, label %19, label %23

17:                                               ; preds = %14
  %18 = call zeroext i1 @errstart(i32 noundef 21, ptr noundef null)
  br i1 %18, label %19, label %23

19:                                               ; preds = %17, %15
  %20 = call i32 @errcode(i32 noundef 67137668)
  %21 = load i32, ptr %3, align 4
  %22 = call i32 (ptr, ...) @errmsg(ptr noundef @.str.10, i32 noundef %21)
  call void @errfinish(ptr noundef @.str.2, i32 noundef 323, ptr noundef @__func__.be_lo_unlink)
  br label %23

23:                                               ; preds = %19, %17, %15
  unreachable

24:                                               ; No predecessors!
  br label %25

25:                                               ; preds = %24
  br label %26

26:                                               ; preds = %25, %1
  %27 = load i8, ptr @lo_compat_privileges, align 1, !range !6, !noundef !7
  %28 = trunc i8 %27 to i1
  br i1 %28, label %46, label %29

29:                                               ; preds = %26
  %30 = load i32, ptr %3, align 4
  %31 = call i32 @GetUserId()
  %32 = call zeroext i1 @object_ownercheck(i32 noundef 2613, i32 noundef %30, i32 noundef %31)
  br i1 %32, label %46, label %33

33:                                               ; preds = %29
  br label %34

34:                                               ; preds = %33
  br i1 true, label %35, label %37

35:                                               ; preds = %34
  %36 = call zeroext i1 @errstart_cold(i32 noundef 21, ptr noundef null) #9
  br i1 %36, label %39, label %43

37:                                               ; preds = %34
  %38 = call zeroext i1 @errstart(i32 noundef 21, ptr noundef null)
  br i1 %38, label %39, label %43

39:                                               ; preds = %37, %35
  %40 = call i32 @errcode(i32 noundef 16797828)
  %41 = load i32, ptr %3, align 4
  %42 = call i32 (ptr, ...) @errmsg(ptr noundef @.str.11, i32 noundef %41)
  call void @errfinish(ptr noundef @.str.2, i32 noundef 334, ptr noundef @__func__.be_lo_unlink)
  br label %43

43:                                               ; preds = %39, %37, %35
  unreachable

44:                                               ; No predecessors!
  br label %45

45:                                               ; preds = %44
  br label %46

46:                                               ; preds = %45, %29, %26
  %47 = load ptr, ptr @fscxt, align 8
  %48 = icmp ne ptr %47, null
  br i1 %48, label %49, label %78

49:                                               ; preds = %46
  call void @llvm.lifetime.start.p0(i64 4, ptr %4) #8
  store i32 0, ptr %4, align 4
  br label %50

50:                                               ; preds = %74, %49
  %51 = load i32, ptr %4, align 4
  %52 = load i32, ptr @cookies_size, align 4
  %53 = icmp slt i32 %51, %52
  br i1 %53, label %54, label %77

54:                                               ; preds = %50
  %55 = load ptr, ptr @cookies, align 8
  %56 = load i32, ptr %4, align 4
  %57 = sext i32 %56 to i64
  %58 = getelementptr inbounds ptr, ptr %55, i64 %57
  %59 = load ptr, ptr %58, align 8
  %60 = icmp ne ptr %59, null
  br i1 %60, label %61, label %73

61:                                               ; preds = %54
  %62 = load ptr, ptr @cookies, align 8
  %63 = load i32, ptr %4, align 4
  %64 = sext i32 %63 to i64
  %65 = getelementptr inbounds ptr, ptr %62, i64 %64
  %66 = load ptr, ptr %65, align 8
  %67 = getelementptr inbounds nuw %struct.LargeObjectDesc, ptr %66, i32 0, i32 0
  %68 = load i32, ptr %67, align 8
  %69 = load i32, ptr %3, align 4
  %70 = icmp eq i32 %68, %69
  br i1 %70, label %71, label %73

71:                                               ; preds = %61
  %72 = load i32, ptr %4, align 4
  call void @closeLOfd(i32 noundef %72)
  br label %73

73:                                               ; preds = %71, %61, %54
  br label %74

74:                                               ; preds = %73
  %75 = load i32, ptr %4, align 4
  %76 = add i32 %75, 1
  store i32 %76, ptr %4, align 4
  br label %50, !llvm.loop !8

77:                                               ; preds = %50
  call void @llvm.lifetime.end.p0(i64 4, ptr %4) #8
  br label %78

78:                                               ; preds = %77, %46
  %79 = load i32, ptr %3, align 4
  %80 = call i32 @inv_drop(i32 noundef %79)
  %81 = call i64 @Int32GetDatum(i32 noundef %80)
  call void @llvm.lifetime.end.p0(i64 4, ptr %3) #8
  ret i64 %81
}