; Function Attrs: nounwind uwtable
define dso_local range(i64 -2147483648, 2147483648) i64 @be_lo_unlink(ptr noundef readonly captures(none) %0) local_unnamed_addr #0 {
  %2 = getelementptr inbounds nuw i8, ptr %0, i64 32
  %3 = load i64, ptr %2, align 8
  %4 = trunc i64 %3 to i32
  tail call void @PreventCommandIfReadOnly(ptr noundef nonnull @.str.9) #10
  %5 = tail call zeroext i1 @LargeObjectExists(i32 noundef %4) #10
  br i1 %5, label %10, label %6

6:                                                ; preds = %1
  %7 = tail call zeroext i1 @errstart_cold(i32 noundef 21, ptr noundef null) #11
  tail call void @llvm.assume(i1 %7)
  %8 = tail call i32 @errcode(i32 noundef 67137668) #10
  %9 = tail call i32 (ptr, ...) @errmsg(ptr noundef nonnull @.str.10, i32 noundef %4) #10
  tail call void @errfinish(ptr noundef nonnull @.str.2, i32 noundef 323, ptr noundef nonnull @__func__.be_lo_unlink) #10
  unreachable

10:                                               ; preds = %1
  %11 = load i8, ptr @lo_compat_privileges, align 1, !range !6, !noundef !7
  %12 = trunc nuw i8 %11 to i1
  br i1 %12, label %20, label %13

13:                                               ; preds = %10
  %14 = tail call i32 @GetUserId() #10
  %15 = tail call zeroext i1 @object_ownercheck(i32 noundef 2613, i32 noundef %4, i32 noundef %14) #10
  br i1 %15, label %20, label %16

16:                                               ; preds = %13
  %17 = tail call zeroext i1 @errstart_cold(i32 noundef 21, ptr noundef null) #11
  tail call void @llvm.assume(i1 %17)
  %18 = tail call i32 @errcode(i32 noundef 16797828) #10
  %19 = tail call i32 (ptr, ...) @errmsg(ptr noundef nonnull @.str.11, i32 noundef %4) #10
  tail call void @errfinish(ptr noundef nonnull @.str.2, i32 noundef 334, ptr noundef nonnull @__func__.be_lo_unlink) #10
  unreachable

20:                                               ; preds = %13, %10
  %21 = load ptr, ptr @fscxt, align 8
  %.not = icmp ne ptr %21, null
  %22 = load i32, ptr @cookies_size, align 4
  %23 = icmp sgt i32 %22, 0
  %or.cond = select i1 %.not, i1 %23, i1 false
  br i1 %or.cond, label %.lr.ph.preheader, label %.loopexit

.lr.ph.preheader:                                 ; preds = %20
  %.pre16 = load ptr, ptr @cookies, align 8
  br label %.lr.ph

.lr.ph:                                           ; preds = %.lr.ph.preheader, %36
  %24 = phi i32 [ %22, %.lr.ph.preheader ], [ %37, %36 ]
  %25 = phi ptr [ %.pre16, %.lr.ph.preheader ], [ %38, %36 ]
  %indvars.iv = phi i64 [ 0, %.lr.ph.preheader ], [ %indvars.iv.next, %36 ]
  %26 = getelementptr inbounds nuw ptr, ptr %25, i64 %indvars.iv
  %27 = load ptr, ptr %26, align 8
  %.not12 = icmp eq ptr %27, null
  br i1 %.not12, label %36, label %28

28:                                               ; preds = %.lr.ph
  %29 = load i32, ptr %27, align 8
  %30 = icmp eq i32 %29, %4
  br i1 %30, label %31, label %36

31:                                               ; preds = %28
  store ptr null, ptr %26, align 8
  %32 = getelementptr inbounds nuw i8, ptr %27, i64 8
  %33 = load ptr, ptr %32, align 8
  %.not.i = icmp eq ptr %33, null
  br i1 %.not.i, label %closeLOfd.exit, label %34

34:                                               ; preds = %31
  %35 = load ptr, ptr @TopTransactionResourceOwner, align 8
  tail call void @UnregisterSnapshotFromOwner(ptr noundef nonnull %33, ptr noundef %35) #10
  br label %closeLOfd.exit

closeLOfd.exit:                                   ; preds = %31, %34
  tail call void @inv_close(ptr noundef nonnull %27) #10
  %.pre = load ptr, ptr @cookies, align 8
  %.pre17 = load i32, ptr @cookies_size, align 4
  br label %36

36:                                               ; preds = %.lr.ph, %28, %closeLOfd.exit
  %37 = phi i32 [ %24, %.lr.ph ], [ %24, %28 ], [ %.pre17, %closeLOfd.exit ]
  %38 = phi ptr [ %25, %.lr.ph ], [ %25, %28 ], [ %.pre, %closeLOfd.exit ]
  %indvars.iv.next = add nuw nsw i64 %indvars.iv, 1
  %39 = sext i32 %37 to i64
  %40 = icmp slt i64 %indvars.iv.next, %39
  br i1 %40, label %.lr.ph, label %.loopexit, !llvm.loop !8

.loopexit:                                        ; preds = %36, %20
  %41 = tail call i32 @inv_drop(i32 noundef %4) #10
  %42 = sext i32 %41 to i64
  ret i64 %42
}